; ModuleID = 'source-C-CXX/59/40.c'
source_filename = "source-C-CXX/59/40.c"
target datalayout = "e-m:e-p270:32:32-p271:32:32-p272:64:64-i64:64-f80:128-n8:16:32:64-S128"
target triple = "x86_64-pc-linux-gnu"

@.str = private unnamed_addr constant [3 x i8] c"%d\00", align 1
@.str.1 = private unnamed_addr constant [7 x i8] c"%d %d\0A\00", align 1
@str = private unnamed_addr constant [6 x i8] c"empty\00", align 1

; Function Attrs: nofree nounwind sspstrong uwtable
define dso_local i32 @main() local_unnamed_addr #0 {
  %1 = alloca i32, align 4
  %2 = bitcast i32* %1 to i8*
  call void @llvm.lifetime.start.p0i8(i64 4, i8* nonnull %2) #5
  %3 = call i32 (i8*, ...) @__isoc99_scanf(i8* getelementptr inbounds ([3 x i8], [3 x i8]* @.str, i64 0, i64 0), i32* nonnull %1)
  %4 = load i32, i32* %1, align 4, !tbaa !5
  %5 = icmp slt i32 %4, 5
  br i1 %5, label %58, label %6

6:                                                ; preds = %0, %51
  %7 = phi i32 [ %52, %51 ], [ 0, %0 ]
  %8 = phi i32 [ %28, %51 ], [ 3, %0 ]
  %9 = sitofp i32 %8 to double
  %10 = call double @sqrt(double %9) #5
  %11 = fcmp ult double %10, 3.000000e+00
  %12 = urem i32 %8, 3
  %13 = icmp eq i32 %12, 0
  %14 = select i1 %11, i1 true, i1 %13
  br i1 %14, label %24, label %15

15:                                               ; preds = %6, %20
  %16 = phi i32 [ %23, %20 ], [ 4, %6 ]
  %17 = sitofp i32 %16 to double
  %18 = call double @sqrt(double %9) #5
  %19 = fcmp ult double %18, %17
  br i1 %19, label %24, label %20, !llvm.loop !9

20:                                               ; preds = %15
  %21 = urem i32 %8, %16
  %22 = icmp eq i32 %21, 0
  %23 = add nuw nsw i32 %16, 1
  br i1 %22, label %24, label %15, !llvm.loop !9

24:                                               ; preds = %20, %15, %6
  %25 = phi double [ 3.000000e+00, %6 ], [ %17, %15 ], [ %17, %20 ]
  %26 = call double @sqrt(double %9) #5
  %27 = fcmp olt double %26, %25
  %28 = add nuw nsw i32 %8, 2
  br i1 %27, label %29, label %51

29:                                               ; preds = %24
  %30 = sitofp i32 %28 to double
  %31 = call double @sqrt(double %30) #5
  %32 = fcmp ult double %31, 3.000000e+00
  %33 = urem i32 %28, 3
  %34 = icmp eq i32 %33, 0
  %35 = select i1 %32, i1 true, i1 %34
  br i1 %35, label %45, label %36

36:                                               ; preds = %29, %41
  %37 = phi i32 [ %44, %41 ], [ 4, %29 ]
  %38 = sitofp i32 %37 to double
  %39 = call double @sqrt(double %30) #5
  %40 = fcmp ult double %39, %38
  br i1 %40, label %45, label %41, !llvm.loop !11

41:                                               ; preds = %36
  %42 = urem i32 %28, %37
  %43 = icmp eq i32 %42, 0
  %44 = add nuw nsw i32 %37, 1
  br i1 %43, label %45, label %36, !llvm.loop !11

45:                                               ; preds = %41, %36, %29
  %46 = phi double [ 3.000000e+00, %29 ], [ %38, %36 ], [ %38, %41 ]
  %47 = call double @sqrt(double %30) #5
  %48 = fcmp olt double %47, %46
  br i1 %48, label %49, label %51

49:                                               ; preds = %45
  %50 = call i32 (i8*, ...) @printf(i8* nonnull dereferenceable(1) getelementptr inbounds ([7 x i8], [7 x i8]* @.str.1, i64 0, i64 0), i32 %8, i32 %28)
  br label %51

51:                                               ; preds = %24, %49, %45
  %52 = phi i32 [ 1, %49 ], [ %7, %45 ], [ %7, %24 ]
  %53 = load i32, i32* %1, align 4, !tbaa !5
  %54 = add nsw i32 %53, -2
  %55 = icmp sgt i32 %28, %54
  br i1 %55, label %56, label %6, !llvm.loop !12

56:                                               ; preds = %51
  %57 = icmp eq i32 %52, 0
  br i1 %57, label %58, label %60

58:                                               ; preds = %0, %56
  %59 = call i32 @puts(i8* nonnull dereferenceable(1) getelementptr inbounds ([6 x i8], [6 x i8]* @str, i64 0, i64 0))
  br label %60

60:                                               ; preds = %58, %56
  call void @llvm.lifetime.end.p0i8(i64 4, i8* nonnull %2) #5
  ret i32 0
}

; Function Attrs: argmemonly mustprogress nofree nosync nounwind willreturn
declare void @llvm.lifetime.start.p0i8(i64 immarg, i8* nocapture) #1

; Function Attrs: nofree nounwind
declare noundef i32 @__isoc99_scanf(i8* nocapture noundef readonly, ...) local_unnamed_addr #2

; Function Attrs: mustprogress nofree nounwind willreturn
declare double @sqrt(double) local_unnamed_addr #3

; Function Attrs: nofree nounwind
declare noundef i32 @printf(i8* nocapture noundef readonly, ...) local_unnamed_addr #2

; Function Attrs: argmemonly mustprogress nofree nosync nounwind willreturn
declare void @llvm.lifetime.end.p0i8(i64 immarg, i8* nocapture) #1

; Function Attrs: nofree nounwind
declare noundef i32 @puts(i8* nocapture noundef readonly) local_unnamed_addr #4


!llvm.module.flags = !{!0, !1, !2, !3}
!llvm.ident = !{!4}

!0 = !{i32 1, !"wchar_size", i32 4}
!1 = !{i32 7, !"PIC Level", i32 2}
!2 = !{i32 7, !"PIE Level", i32 2}
!3 = !{i32 7, !"uwtable", i32 1}
!4 = !{!"clang version 13.0.0"}
!5 = !{!6, !6, i64 0}
!6 = !{!"int", !7, i64 0}
!7 = !{!"omnipotent char", !8, i64 0}
!8 = !{!"Simple C/C++ TBAA"}
!9 = distinct !{!9, !10}
!10 = !{!"llvm.loop.mustprogress"}
!11 = distinct !{!11, !10}
!12 = distinct !{!12, !10}
